; Function Attrs: nounwind uwtable
define ptr @l_Int_Linear_Poly_norm(ptr noundef %0) local_unnamed_addr #1 {
  %2 = ptrtoint ptr %0 to i64
  %3 = and i64 %2, 1
  %.not.i28 = icmp eq i64 %3, 0
  br i1 %.not.i28, label %7, label %4

4:                                                ; preds = %1
  %5 = lshr i64 %2, 1
  %6 = trunc i64 %5 to i32
  br label %lean_obj_tag.exit

7:                                                ; preds = %1
  %8 = getelementptr i8, ptr %0, i64 4
  %.val.i = load i32, ptr %8, align 4
  %9 = lshr i32 %.val.i, 24
  br label %lean_obj_tag.exit

lean_obj_tag.exit:                                ; preds = %4, %7
  %.0.i = phi i32 [ %6, %4 ], [ %9, %7 ]
  %10 = icmp eq i32 %.0.i, 0
  br i1 %10, label %11, label %36

11:                                               ; preds = %lean_obj_tag.exit
  %.val = load i32, ptr %0, align 4, !tbaa !6
  %12 = icmp eq i32 %.val, 1
  br i1 %12, label %common.ret45, label %13

13:                                               ; preds = %11
  %14 = getelementptr inbounds nuw i8, ptr %0, i64 8
  %15 = load ptr, ptr %14, align 8, !tbaa !11
  %16 = ptrtoint ptr %15 to i64
  %17 = and i64 %16, 1
  %.not43 = icmp eq i64 %17, 0
  br i1 %.not43, label %18, label %lean_inc.exit25

18:                                               ; preds = %13
  %.val.i29 = load i32, ptr %15, align 4, !tbaa !6
  %19 = icmp sgt i32 %.val.i29, 0
  br i1 %19, label %20, label %22, !prof !5

20:                                               ; preds = %18
  %21 = add nuw i32 %.val.i29, 1
  store i32 %21, ptr %15, align 4, !tbaa !6
  br label %lean_inc.exit25

22:                                               ; preds = %18
  %.not.i30 = icmp eq i32 %.val.i29, 0
  br i1 %.not.i30, label %lean_inc.exit25, label %23

23:                                               ; preds = %22
  tail call void @lean_inc_ref_cold(ptr noundef nonnull %15) #5
  br label %lean_inc.exit25

lean_inc.exit25:                                  ; preds = %23, %22, %20, %13
  br i1 %.not.i28, label %24, label %lean_dec.exit22

24:                                               ; preds = %lean_inc.exit25
  %25 = load i32, ptr %0, align 4, !tbaa !6
  %26 = icmp sgt i32 %25, 1
  br i1 %26, label %27, label %29, !prof !5

27:                                               ; preds = %24
  %28 = add nsw i32 %25, -1
  store i32 %28, ptr %0, align 4, !tbaa !6
  br label %lean_dec.exit22

29:                                               ; preds = %24
  %.not.i = icmp eq i32 %25, 0
  br i1 %.not.i, label %lean_dec.exit22, label %30

30:                                               ; preds = %29
  tail call void @lean_dec_ref_cold(ptr noundef nonnull %0) #5
  br label %lean_dec.exit22

lean_dec.exit22:                                  ; preds = %30, %29, %27, %lean_inc.exit25
  tail call void @lean_inc_heartbeat() #5
  %31 = tail call noalias ptr @mi_malloc_small(i64 noundef 16) #5
  %32 = icmp eq ptr %31, null
  br i1 %32, label %33, label %lean_alloc_ctor.exit

33:                                               ; preds = %lean_dec.exit22
  tail call void @lean_internal_panic_out_of_memory() #6
  unreachable

lean_alloc_ctor.exit:                             ; preds = %lean_dec.exit22
  %34 = getelementptr inbounds nuw i8, ptr %31, i64 4
  store i32 1, ptr %31, align 4, !tbaa !6
  store i32 65552, ptr %34, align 4
  %35 = getelementptr inbounds nuw i8, ptr %31, i64 8
  store ptr %15, ptr %35, align 8, !tbaa !11
  br label %common.ret45

36:                                               ; preds = %lean_obj_tag.exit
  %37 = getelementptr inbounds nuw i8, ptr %0, i64 8
  %38 = load ptr, ptr %37, align 8, !tbaa !11
  %39 = ptrtoint ptr %38 to i64
  %40 = and i64 %39, 1
  %.not = icmp eq i64 %40, 0
  br i1 %.not, label %41, label %lean_inc.exit24

41:                                               ; preds = %36
  %.val.i31 = load i32, ptr %38, align 4, !tbaa !6
  %42 = icmp sgt i32 %.val.i31, 0
  br i1 %42, label %43, label %45, !prof !5

43:                                               ; preds = %41
  %44 = add nuw i32 %.val.i31, 1
  store i32 %44, ptr %38, align 4, !tbaa !6
  br label %lean_inc.exit24

45:                                               ; preds = %41
  %.not.i32 = icmp eq i32 %.val.i31, 0
  br i1 %.not.i32, label %lean_inc.exit24, label %46

46:                                               ; preds = %45
  tail call void @lean_inc_ref_cold(ptr noundef nonnull %38) #5
  br label %lean_inc.exit24

lean_inc.exit24:                                  ; preds = %46, %45, %43, %36
  %47 = getelementptr inbounds nuw i8, ptr %0, i64 16
  %48 = load ptr, ptr %47, align 8, !tbaa !11
  %49 = ptrtoint ptr %48 to i64
  %50 = and i64 %49, 1
  %.not40 = icmp eq i64 %50, 0
  br i1 %.not40, label %51, label %lean_inc.exit23

51:                                               ; preds = %lean_inc.exit24
  %.val.i34 = load i32, ptr %48, align 4, !tbaa !6
  %52 = icmp sgt i32 %.val.i34, 0
  br i1 %52, label %53, label %55, !prof !5

53:                                               ; preds = %51
  %54 = add nuw i32 %.val.i34, 1
  store i32 %54, ptr %48, align 4, !tbaa !6
  br label %lean_inc.exit23

55:                                               ; preds = %51
  %.not.i35 = icmp eq i32 %.val.i34, 0
  br i1 %.not.i35, label %lean_inc.exit23, label %56

56:                                               ; preds = %55
  tail call void @lean_inc_ref_cold(ptr noundef nonnull %48) #5
  br label %lean_inc.exit23

lean_inc.exit23:                                  ; preds = %56, %55, %53, %lean_inc.exit24
  %57 = getelementptr inbounds nuw i8, ptr %0, i64 24
  %58 = load ptr, ptr %57, align 8, !tbaa !11
  %59 = ptrtoint ptr %58 to i64
  %60 = and i64 %59, 1
  %.not41 = icmp eq i64 %60, 0
  br i1 %.not41, label %61, label %lean_inc.exit

61:                                               ; preds = %lean_inc.exit23
  %.val.i37 = load i32, ptr %58, align 4, !tbaa !6
  %62 = icmp sgt i32 %.val.i37, 0
  br i1 %62, label %63, label %65, !prof !5

63:                                               ; preds = %61
  %64 = add nuw i32 %.val.i37, 1
  store i32 %64, ptr %58, align 4, !tbaa !6
  br label %lean_inc.exit

65:                                               ; preds = %61
  %.not.i38 = icmp eq i32 %.val.i37, 0
  br i1 %.not.i38, label %lean_inc.exit, label %66

66:                                               ; preds = %65
  tail call void @lean_inc_ref_cold(ptr noundef nonnull %58) #5
  br label %lean_inc.exit

lean_inc.exit:                                    ; preds = %66, %65, %63, %lean_inc.exit23
  br i1 %.not.i28, label %67, label %lean_dec.exit

67:                                               ; preds = %lean_inc.exit
  %68 = load i32, ptr %0, align 4, !tbaa !6
  %69 = icmp sgt i32 %68, 1
  br i1 %69, label %70, label %72, !prof !5

70:                                               ; preds = %67
  %71 = add nsw i32 %68, -1
  store i32 %71, ptr %0, align 4, !tbaa !6
  br label %lean_dec.exit

72:                                               ; preds = %67
  %.not.i26 = icmp eq i32 %68, 0
  br i1 %.not.i26, label %lean_dec.exit, label %73

73:                                               ; preds = %72
  tail call void @lean_dec_ref_cold(ptr noundef nonnull %0) #5
  br label %lean_dec.exit

common.ret45:                                     ; preds = %lean_alloc_ctor.exit, %11, %lean_dec.exit
  %common.ret45.op = phi ptr [ %75, %lean_dec.exit ], [ %31, %lean_alloc_ctor.exit ], [ %0, %11 ]
  ret ptr %common.ret45.op

lean_dec.exit:                                    ; preds = %73, %72, %70, %lean_inc.exit
  %74 = tail call ptr @l_Int_Linear_Poly_norm(ptr noundef %58)
  %75 = tail call ptr @l_Int_Linear_Poly_insert(ptr noundef %38, ptr noundef %48, ptr noundef %74)
  br label %common.ret45
}